target datalayout = "e-m:e-p270:32:32-p271:32:32-p272:64:64-i64:64-i128:128-f80:128-n8:16:32:64-S128"
target triple = "x86_64-pc-linux-gnu"

%struct.quic_port_st = type { ptr, %struct.anon, ptr, ptr, ptr, ptr, ptr, ptr, %struct.ossl_list_st_ch, %struct.ossl_list_st_incoming_ch, ptr, ptr, ptr, ptr, i8, i8, i16, ptr }
%struct.anon = type { ptr, ptr }
%struct.ossl_list_st_ch = type { ptr, ptr, i64 }
%struct.ossl_list_st_incoming_ch = type { ptr, ptr, i64 }
%struct.quic_engine_st = type { ptr, ptr, ptr, ptr, ptr, %struct.quic_reactor_st, %struct.ossl_list_st_port, i8 }
%struct.quic_reactor_st = type { %struct.bio_poll_descriptor_st, %struct.bio_poll_descriptor_st, %struct.OSSL_TIME, ptr, ptr, ptr, %struct.rio_notifier_st, ptr, i64, i8 }
%struct.bio_poll_descriptor_st = type { i32, %union.anon.6 }
%union.anon.6 = type { ptr }
%struct.OSSL_TIME = type { i64 }
%struct.rio_notifier_st = type { i32, i32 }
%struct.ossl_list_st_port = type { ptr, ptr, i64 }

@.str = private unnamed_addr constant [32 x i8] c"../openssl/ssl/quic/quic_port.c\00", align 1
@__func__.validate_poll_descriptor = private unnamed_addr constant [25 x i8] c"validate_poll_descriptor\00", align 1

; Function Attrs: nounwind uwtable
define internal i32 @validate_poll_descriptor(ptr noundef %0) #0 {
  %2 = alloca i32, align 4
  %3 = alloca ptr, align 8
  store ptr %0, ptr %3, align 8, !tbaa !256
  %4 = load ptr, ptr %3, align 8, !tbaa !256
  %5 = getelementptr inbounds nuw %struct.bio_poll_descriptor_st, ptr %4, i32 0, i32 0
  %6 = load i32, ptr %5, align 8, !tbaa !66
  %7 = icmp eq i32 %6, 1
  br i1 %7, label %8, label %14

8:                                                ; preds = %1
  %9 = load ptr, ptr %3, align 8, !tbaa !256
  %10 = getelementptr inbounds nuw %struct.bio_poll_descriptor_st, ptr %9, i32 0, i32 1
  %11 = load i32, ptr %10, align 8, !tbaa !199
  %12 = icmp slt i32 %11, 0
  br i1 %12, label %13, label %14

13:                                               ; preds = %8
  call void @ERR_new()
  call void @ERR_set_debug(ptr noundef @.str, i32 noundef 282, ptr noundef @__func__.validate_poll_descriptor)
  call void (i32, i32, ptr, ...) @ERR_set_error(i32 noundef 20, i32 noundef 524550, ptr noundef null)
  store i32 0, ptr %2, align 4
  br label %15

14:                                               ; preds = %8, %1
  store i32 1, ptr %2, align 4
  br label %15

15:                                               ; preds = %14, %13
  %16 = load i32, ptr %2, align 4
  ret i32 %16
}

; Function Attrs: nounwind uwtable
define internal i32 @port_update_poll_desc(ptr noundef %0, ptr noundef %1, i32 noundef %2) #0 {
  %4 = alloca i32, align 4
  %5 = alloca ptr, align 8
  %6 = alloca ptr, align 8
  %7 = alloca i32, align 4
  %8 = alloca %struct.bio_poll_descriptor_st, align 8
  %9 = alloca i32, align 4
  store ptr %0, ptr %5, align 8, !tbaa !8
  store ptr %1, ptr %6, align 8, !tbaa !65
  store i32 %2, ptr %7, align 4, !tbaa !41
  call void @llvm.lifetime.start.p0(i64 16, ptr %8) #8
  call void @llvm.memset.p0.i64(ptr align 8 %8, i8 0, i64 16, i1 false)
  %10 = load ptr, ptr %6, align 8, !tbaa !65
  %11 = icmp eq ptr %10, null
  br i1 %11, label %26, label %12

12:                                               ; preds = %3
  %13 = load i32, ptr %7, align 4, !tbaa !41
  %14 = icmp ne i32 %13, 0
  br i1 %14, label %19, label %15

15:                                               ; preds = %12
  %16 = load ptr, ptr %6, align 8, !tbaa !65
  %17 = call i32 @BIO_get_rpoll_descriptor(ptr noundef %16, ptr noundef %8)
  %18 = icmp ne i32 %17, 0
  br i1 %18, label %19, label %26

19:                                               ; preds = %15, %12
  %20 = load i32, ptr %7, align 4, !tbaa !41
  %21 = icmp ne i32 %20, 0
  br i1 %21, label %22, label %28

22:                                               ; preds = %19
  %23 = load ptr, ptr %6, align 8, !tbaa !65
  %24 = call i32 @BIO_get_wpoll_descriptor(ptr noundef %23, ptr noundef %8)
  %25 = icmp ne i32 %24, 0
  br i1 %25, label %28, label %26

26:                                               ; preds = %22, %15, %3
  %27 = getelementptr inbounds nuw %struct.bio_poll_descriptor_st, ptr %8, i32 0, i32 0
  store i32 0, ptr %27, align 8, !tbaa !66
  br label %28

28:                                               ; preds = %26, %22, %19
  %29 = call i32 @validate_poll_descriptor(ptr noundef %8)
  %30 = icmp ne i32 %29, 0
  br i1 %30, label %32, label %31

31:                                               ; preds = %28
  store i32 0, ptr %4, align 4
  store i32 1, ptr %9, align 4
  br label %46

32:                                               ; preds = %28
  %33 = load i32, ptr %7, align 4, !tbaa !41
  %34 = icmp ne i32 %33, 0
  br i1 %34, label %35, label %40

35:                                               ; preds = %32
  %36 = load ptr, ptr %5, align 8, !tbaa !8
  %37 = getelementptr inbounds nuw %struct.quic_port_st, ptr %36, i32 0, i32 0
  %38 = load ptr, ptr %37, align 8, !tbaa !15
  %39 = getelementptr inbounds nuw %struct.quic_engine_st, ptr %38, i32 0, i32 5
  call void @ossl_quic_reactor_set_poll_w(ptr noundef %39, ptr noundef %8)
  br label %45

40:                                               ; preds = %32
  %41 = load ptr, ptr %5, align 8, !tbaa !8
  %42 = getelementptr inbounds nuw %struct.quic_port_st, ptr %41, i32 0, i32 0
  %43 = load ptr, ptr %42, align 8, !tbaa !15
  %44 = getelementptr inbounds nuw %struct.quic_engine_st, ptr %43, i32 0, i32 5
  call void @ossl_quic_reactor_set_poll_r(ptr noundef %44, ptr noundef %8)
  br label %45

45:                                               ; preds = %40, %35
  store i32 1, ptr %4, align 4
  store i32 1, ptr %9, align 4
  br label %46

46:                                               ; preds = %45, %31
  call void @llvm.lifetime.end.p0(i64 16, ptr %8) #8
  %47 = load i32, ptr %4, align 4
  ret i32 %47
}

; Function Attrs: nounwind uwtable
define i32 @ossl_quic_port_update_poll_descriptors(ptr noundef %0, i32 noundef %1) #0 {
  %3 = alloca i32, align 4
  %4 = alloca ptr, align 8
  %5 = alloca i32, align 4
  %6 = alloca i32, align 4
  %7 = alloca i32, align 4
  store ptr %0, ptr %4, align 8, !tbaa !8
  store i32 %1, ptr %5, align 4, !tbaa !41
  call void @llvm.lifetime.start.p0(i64 4, ptr %6) #8
  store i32 1, ptr %6, align 4, !tbaa !41
  %8 = load i32, ptr %5, align 4, !tbaa !41
  %9 = icmp ne i32 %8, 0
  br i1 %9, label %19, label %10

10:                                               ; preds = %2
  %11 = load ptr, ptr %4, align 8, !tbaa !8
  %12 = getelementptr inbounds nuw %struct.quic_port_st, ptr %11, i32 0, i32 16
  %13 = load i16, ptr %12, align 2
  %14 = lshr i16 %13, 8
  %15 = and i16 %14, 1
  %16 = zext i16 %15 to i32
  %17 = icmp ne i32 %16, 0
  br i1 %17, label %19, label %18

18:                                               ; preds = %10
  store i32 0, ptr %3, align 4
  store i32 1, ptr %7, align 4
  br label %42

19:                                               ; preds = %10, %2
  %20 = load ptr, ptr %4, align 8, !tbaa !8
  %21 = load ptr, ptr %4, align 8, !tbaa !8
  %22 = getelementptr inbounds nuw %struct.quic_port_st, ptr %21, i32 0, i32 5
  %23 = load ptr, ptr %22, align 8, !tbaa !63
  %24 = call i32 @port_update_poll_desc(ptr noundef %20, ptr noundef %23, i32 noundef 0)
  %25 = icmp ne i32 %24, 0
  br i1 %25, label %27, label %26

26:                                               ; preds = %19
  store i32 0, ptr %6, align 4, !tbaa !41
  br label %27

27:                                               ; preds = %26, %19
  %28 = load ptr, ptr %4, align 8, !tbaa !8
  %29 = load ptr, ptr %4, align 8, !tbaa !8
  %30 = getelementptr inbounds nuw %struct.quic_port_st, ptr %29, i32 0, i32 6
  %31 = load ptr, ptr %30, align 8, !tbaa !64
  %32 = call i32 @port_update_poll_desc(ptr noundef %28, ptr noundef %31, i32 noundef 1)
  %33 = icmp ne i32 %32, 0
  br i1 %33, label %35, label %34

34:                                               ; preds = %27
  store i32 0, ptr %6, align 4, !tbaa !41
  br label %35

35:                                               ; preds = %34, %27
  %36 = load ptr, ptr %4, align 8, !tbaa !8
  %37 = getelementptr inbounds nuw %struct.quic_port_st, ptr %36, i32 0, i32 16
  %38 = load i16, ptr %37, align 2
  %39 = and i16 %38, -257
  %40 = or i16 %39, 0
  store i16 %40, ptr %37, align 2
  %41 = load i32, ptr %6, align 4, !tbaa !41
  store i32 %41, ptr %3, align 4
  store i32 1, ptr %7, align 4
  br label %42

42:                                               ; preds = %35, %18
  call void @llvm.lifetime.end.p0(i64 4, ptr %6) #8
  %43 = load i32, ptr %3, align 4
  ret i32 %43
}