; Function Attrs: nounwind uwtable
define range(i32 0, 2) i32 @ossl_quic_port_update_poll_descriptors(ptr noundef captures(none) %0, i32 noundef %1) local_unnamed_addr #0 {
  %3 = alloca %struct.bio_poll_descriptor_st, align 8
  %4 = alloca %struct.bio_poll_descriptor_st, align 8
  %.not = icmp eq i32 %1, 0
  br i1 %.not, label %5, label %9

5:                                                ; preds = %2
  %6 = getelementptr inbounds nuw i8, ptr %0, i64 154
  %7 = load i16, ptr %6, align 2
  %8 = and i16 %7, 256
  %.not9 = icmp eq i16 %8, 0
  br i1 %.not9, label %39, label %9

9:                                                ; preds = %5, %2
  %10 = getelementptr inbounds nuw i8, ptr %0, i64 48
  %11 = load ptr, ptr %10, align 8, !tbaa !58
  call void @llvm.lifetime.start.p0(i64 16, ptr nonnull %4) #11
  call void @llvm.memset.p0.i64(ptr noundef nonnull align 8 dereferenceable(16) %4, i8 0, i64 16, i1 false)
  %12 = icmp eq ptr %11, null
  br i1 %12, label %port_update_poll_desc.exit, label %13

13:                                               ; preds = %9
  %14 = call i32 @BIO_get_rpoll_descriptor(ptr noundef nonnull %11, ptr noundef nonnull %4) #11
  %.not9.i = icmp eq i32 %14, 0
  br i1 %.not9.i, label %validate_poll_descriptor.exit.thread29.i, label %.thread22.i

validate_poll_descriptor.exit.thread29.i:         ; preds = %13
  store i32 0, ptr %4, align 8, !tbaa !60
  br label %port_update_poll_desc.exit

.thread22.i:                                      ; preds = %13
  %.val23.i = load i32, ptr %4, align 8, !tbaa !60
  %15 = getelementptr inbounds nuw i8, ptr %4, i64 8
  %.val1324.i = load i32, ptr %15, align 8
  %16 = icmp eq i32 %.val23.i, 1
  %17 = icmp slt i32 %.val1324.i, 0
  %or.cond.i25.i = select i1 %16, i1 %17, i1 false
  br i1 %or.cond.i25.i, label %20, label %port_update_poll_desc.exit

port_update_poll_desc.exit:                       ; preds = %validate_poll_descriptor.exit.thread29.i, %.thread22.i, %9
  %18 = load ptr, ptr %0, align 8, !tbaa !11
  %19 = getelementptr inbounds nuw i8, ptr %18, i64 40
  call void @ossl_quic_reactor_set_poll_r(ptr noundef nonnull %19, ptr noundef nonnull %4) #11
  br label %21

20:                                               ; preds = %.thread22.i
  call void @ERR_new() #11
  call void @ERR_set_debug(ptr noundef nonnull @.str, i32 noundef 282, ptr noundef nonnull @__func__.validate_poll_descriptor) #11
  call void (i32, i32, ptr, ...) @ERR_set_error(i32 noundef 20, i32 noundef 524550, ptr noundef null) #11
  br label %21

21:                                               ; preds = %port_update_poll_desc.exit, %20
  %22 = phi i32 [ 0, %20 ], [ 1, %port_update_poll_desc.exit ]
  call void @llvm.lifetime.end.p0(i64 16, ptr nonnull %4) #11
  %23 = getelementptr inbounds nuw i8, ptr %0, i64 56
  %24 = load ptr, ptr %23, align 8, !tbaa !59
  call void @llvm.lifetime.start.p0(i64 16, ptr nonnull %3) #11
  call void @llvm.memset.p0.i64(ptr noundef nonnull align 8 dereferenceable(16) %3, i8 0, i64 16, i1 false)
  %25 = icmp eq ptr %24, null
  br i1 %25, label %port_update_poll_desc.exit15, label %26

26:                                               ; preds = %21
  %27 = call i32 @BIO_get_wpoll_descriptor(ptr noundef nonnull %24, ptr noundef nonnull %3) #11
  %.not10.i = icmp eq i32 %27, 0
  br i1 %.not10.i, label %validate_poll_descriptor.exit.thread31.i, label %.thread.i

validate_poll_descriptor.exit.thread31.i:         ; preds = %26
  store i32 0, ptr %3, align 8, !tbaa !60
  br label %port_update_poll_desc.exit15

.thread.i:                                        ; preds = %26
  %.val16.i = load i32, ptr %3, align 8, !tbaa !60
  %28 = getelementptr inbounds nuw i8, ptr %3, i64 8
  %.val1317.i = load i32, ptr %28, align 8
  %29 = icmp eq i32 %.val16.i, 1
  %30 = icmp slt i32 %.val1317.i, 0
  %or.cond.i18.i = select i1 %29, i1 %30, i1 false
  br i1 %or.cond.i18.i, label %33, label %port_update_poll_desc.exit15

port_update_poll_desc.exit15:                     ; preds = %validate_poll_descriptor.exit.thread31.i, %.thread.i, %21
  %31 = load ptr, ptr %0, align 8, !tbaa !11
  %32 = getelementptr inbounds nuw i8, ptr %31, i64 40
  call void @ossl_quic_reactor_set_poll_w(ptr noundef nonnull %32, ptr noundef nonnull %3) #11
  br label %34

33:                                               ; preds = %.thread.i
  call void @ERR_new() #11
  call void @ERR_set_debug(ptr noundef nonnull @.str, i32 noundef 282, ptr noundef nonnull @__func__.validate_poll_descriptor) #11
  call void (i32, i32, ptr, ...) @ERR_set_error(i32 noundef 20, i32 noundef 524550, ptr noundef null) #11
  br label %34

34:                                               ; preds = %port_update_poll_desc.exit15, %33
  %35 = phi i32 [ 0, %33 ], [ %22, %port_update_poll_desc.exit15 ]
  call void @llvm.lifetime.end.p0(i64 16, ptr nonnull %3) #11
  %36 = getelementptr inbounds nuw i8, ptr %0, i64 154
  %37 = load i16, ptr %36, align 2
  %38 = and i16 %37, -257
  store i16 %38, ptr %36, align 2
  br label %39

39:                                               ; preds = %5, %34
  %.08 = phi i32 [ %35, %34 ], [ 0, %5 ]
  ret i32 %.08
}